; Function Attrs: mustprogress uwtable
define noundef double @_ZNK8QuantLib12CallableBond16ImpliedVolHelperclEd(ptr nocapture noundef nonnull readonly align 8 dereferenceable(56) %this, double noundef %x) local_unnamed_addr #8 align 2 {
entry:
  %vol_ = getelementptr inbounds nuw i8, ptr %this, i64 32
  %0 = load ptr, ptr %vol_, align 8, !tbaa !115
  %cmp.not.i = icmp eq ptr %0, null
  br i1 %cmp.not.i, label %cond.false.i, label %_ZNK5boost10shared_ptrIN8QuantLib11SimpleQuoteEEptEv.exit, !prof !50

cond.false.i:                                     ; preds = %entry
  tail call void @_ZN5boost16assertion_failedEPKcS1_S1_l(ptr noundef nonnull @.str.26, ptr noundef nonnull @__PRETTY_FUNCTION__._ZNK5boost10shared_ptrIN8QuantLib11SimpleQuoteEEptEv, ptr noundef nonnull @.str.27, i64 noundef 784)
  %.pre.i = load ptr, ptr %vol_, align 8, !tbaa !115
  br label %_ZNK5boost10shared_ptrIN8QuantLib11SimpleQuoteEEptEv.exit

_ZNK5boost10shared_ptrIN8QuantLib11SimpleQuoteEEptEv.exit: ; preds = %entry, %cond.false.i
  %1 = phi ptr [ %0, %entry ], [ %.pre.i, %cond.false.i ]
  %value_.i = getelementptr inbounds nuw i8, ptr %1, i64 8
  %2 = load double, ptr %value_.i, align 8, !tbaa !44
  %sub.i = fsub double %x, %2
  %cmp.i = fcmp une double %sub.i, 0.000000e+00
  br i1 %cmp.i, label %if.then.i, label %_ZN8QuantLib11SimpleQuote8setValueEd.exit

if.then.i:                                        ; preds = %_ZNK5boost10shared_ptrIN8QuantLib11SimpleQuoteEEptEv.exit
  store double %x, ptr %value_.i, align 8, !tbaa !44
  %vtable.i = load ptr, ptr %1, align 8, !tbaa !33
  %vbase.offset.ptr.i = getelementptr i8, ptr %vtable.i, i64 -24
  %vbase.offset.i = load i64, ptr %vbase.offset.ptr.i, align 8
  %add.ptr.i = getelementptr inbounds i8, ptr %1, i64 %vbase.offset.i
  tail call void @_ZN8QuantLib10Observable15notifyObserversEv(ptr noundef nonnull align 8 dereferenceable(56) %add.ptr.i)
  br label %_ZN8QuantLib11SimpleQuote8setValueEd.exit

_ZN8QuantLib11SimpleQuote8setValueEd.exit:        ; preds = %_ZNK5boost10shared_ptrIN8QuantLib11SimpleQuoteEEptEv.exit, %if.then.i
  %3 = load ptr, ptr %this, align 8, !tbaa !120
  %cmp.not.i1 = icmp eq ptr %3, null
  br i1 %cmp.not.i1, label %cond.false.i2, label %_ZNK5boost10shared_ptrIN8QuantLib13PricingEngineEEptEv.exit, !prof !50

cond.false.i2:                                    ; preds = %_ZN8QuantLib11SimpleQuote8setValueEd.exit
  tail call void @_ZN5boost16assertion_failedEPKcS1_S1_l(ptr noundef nonnull @.str.26, ptr noundef nonnull @__PRETTY_FUNCTION__._ZNK5boost10shared_ptrIN8QuantLib13PricingEngineEEptEv, ptr noundef nonnull @.str.27, i64 noundef 784)
  %.pre.i3 = load ptr, ptr %this, align 8, !tbaa !120
  br label %_ZNK5boost10shared_ptrIN8QuantLib13PricingEngineEEptEv.exit

_ZNK5boost10shared_ptrIN8QuantLib13PricingEngineEEptEv.exit: ; preds = %_ZN8QuantLib11SimpleQuote8setValueEd.exit, %cond.false.i2
  %4 = phi ptr [ %3, %_ZN8QuantLib11SimpleQuote8setValueEd.exit ], [ %.pre.i3, %cond.false.i2 ]
  %vtable = load ptr, ptr %4, align 8, !tbaa !33
  %vfn = getelementptr inbounds i8, ptr %vtable, i64 40
  %5 = load ptr, ptr %vfn, align 8
  tail call void %5(ptr noundef nonnull align 8 dereferenceable(56) %4)
  %matchNPV_ = getelementptr inbounds nuw i8, ptr %this, i64 24
  %6 = load i8, ptr %matchNPV_, align 8, !tbaa !113, !range !26, !noundef !27
  %loadedv = trunc nuw i8 %6 to i1
  %results_ = getelementptr inbounds nuw i8, ptr %this, i64 48
  %7 = load ptr, ptr %results_, align 8
  %cond.in.v = select i1 %loadedv, i64 8, i64 80
  %cond.in = getelementptr inbounds nuw i8, ptr %7, i64 %cond.in.v
  %cond = load double, ptr %cond.in, align 8, !tbaa !114
  %targetValue_ = getelementptr inbounds nuw i8, ptr %this, i64 16
  %8 = load double, ptr %targetValue_, align 8, !tbaa !110
  %sub = fsub double %cond, %8
  ret double %sub
}